; Function Attrs: nounwind uwtable
define internal noundef i32 @gitdiff_copydst(ptr noundef readonly captures(none) %0, ptr noundef %1, ptr noundef captures(none) %2) #0 {
  %4 = getelementptr inbounds nuw i8, ptr %2, i64 64
  %5 = load i16, ptr %4, align 8
  %6 = or i16 %5, 8
  store i16 %6, ptr %4, align 8
  %7 = load ptr, ptr %2, align 8, !tbaa !65
  tail call void @free(ptr noundef %7) #21
  %8 = load ptr, ptr %0, align 8, !tbaa !74
  %9 = getelementptr inbounds nuw i8, ptr %0, i64 12
  %10 = load i32, ptr %9, align 4, !tbaa !78
  %spec.select = tail call i32 @llvm.usub.sat.i32(i32 %10, i32 1)
  %11 = load i8, ptr %1, align 1, !tbaa !53
  %12 = icmp eq i8 %11, 34
  br i1 %12, label %13, label %15

13:                                               ; preds = %3
  %14 = tail call fastcc ptr @find_name_gnu(ptr noundef readonly %8, ptr noundef nonnull %1, i32 noundef %spec.select)
  %.not.not.i = icmp eq ptr %14, null
  br i1 %.not.not.i, label %15, label %find_name.exit

15:                                               ; preds = %13, %3
  %16 = tail call fastcc ptr @find_name_common(ptr noundef readonly %8, ptr noundef nonnull %1, ptr noundef null, i32 noundef %spec.select, ptr noundef null, i32 noundef 0)
  br label %find_name.exit

find_name.exit:                                   ; preds = %13, %15
  %.1.i = phi ptr [ %14, %13 ], [ %16, %15 ]
  store ptr %.1.i, ptr %2, align 8, !tbaa !65
  ret i32 0
}